; Function Attrs: mustprogress uwtable
define hidden void @_ZN4cvc58internal6theory5arith14EqualitySolver23conflictEqConstantMergeENS0_12NodeTemplateILb0EEES5_(ptr noundef nonnull readonly align 8 captures(none) dereferenceable(120) %0, ptr noundef %1, ptr noundef %2) local_unnamed_addr #3 align 2 personality ptr @__gxx_personality_v0 {
  %4 = alloca %"class.cvc5::internal::NodeTemplate", align 8
  %5 = alloca %"class.cvc5::internal::NodeTemplate.431", align 8
  %6 = alloca %"class.cvc5::internal::NodeTemplate.431", align 8
  %7 = alloca %"class.cvc5::internal::NodeTemplate.431", align 8
  %8 = getelementptr inbounds nuw i8, ptr %0, i64 112
  %9 = load ptr, ptr %8, align 8, !tbaa !41
  %.not = icmp eq ptr %9, null
  br i1 %.not, label %30, label %10

10:                                               ; preds = %3
  call void @llvm.lifetime.start.p0(i64 8, ptr nonnull %4) #24
  call void @_ZNK4cvc58internal12NodeTemplateILb0EE6eqNodeILb0EEENS1_ILb1EEERKNS1_IXT_EEE(ptr dead_on_unwind nonnull writable sret(%"class.cvc5::internal::NodeTemplate") align 8 %4, ptr noundef nonnull align 8 dereferenceable(8) %1, ptr noundef nonnull align 8 dereferenceable(8) %2)
  %11 = load ptr, ptr %8, align 8, !tbaa !41
  %12 = load ptr, ptr %4, align 8, !tbaa !54
  store ptr %12, ptr %5, align 8, !tbaa !51
  %13 = invoke noundef zeroext i1 @_ZN4cvc58internal6theory5arith6linear22ArithCongruenceManager9propagateENS0_12NodeTemplateILb0EEE(ptr noundef nonnull align 8 dereferenceable(680) %11, ptr noundef nonnull %5)
          to label %14 unwind label %28

14:                                               ; preds = %10
  %15 = load ptr, ptr %4, align 8, !tbaa !54
  %16 = load i64, ptr %15, align 8
  %17 = and i64 %16, 1152920405095219200
  %.not.i.i = icmp eq i64 %17, 1152920405095219200
  br i1 %.not.i.i, label %_ZN4cvc58internal12NodeTemplateILb1EED2Ev.exit, label %18, !prof !57

18:                                               ; preds = %14
  %19 = add i64 %16, 1152920405095219200
  %20 = and i64 %19, 1152920405095219200
  %21 = and i64 %16, -1152920405095219201
  %22 = or disjoint i64 %20, %21
  store i64 %22, ptr %15, align 8
  %23 = icmp eq i64 %20, 0
  br i1 %23, label %24, label %_ZN4cvc58internal12NodeTemplateILb1EED2Ev.exit, !prof !57

24:                                               ; preds = %18
  invoke void @_ZN4cvc58internal4expr9NodeValue15markForDeletionEv(ptr noundef nonnull align 8 dereferenceable(24) %15)
          to label %_ZN4cvc58internal12NodeTemplateILb1EED2Ev.exit unwind label %25

25:                                               ; preds = %24
  %26 = landingpad { ptr, i32 }
          catch ptr null
  %27 = extractvalue { ptr, i32 } %26, 0
  call void @__clang_call_terminate(ptr %27) #25
  unreachable

_ZN4cvc58internal12NodeTemplateILb1EED2Ev.exit:   ; preds = %14, %18, %24
  call void @llvm.lifetime.end.p0(i64 8, ptr nonnull %4) #24
  br label %35

28:                                               ; preds = %10
  %29 = landingpad { ptr, i32 }
          cleanup
  call void @_ZN4cvc58internal12NodeTemplateILb1EED2Ev(ptr noundef nonnull align 8 dereferenceable(8) %4) #24
  call void @llvm.lifetime.end.p0(i64 8, ptr nonnull %4) #24
  resume { ptr, i32 } %29

30:                                               ; preds = %3
  %31 = getelementptr inbounds nuw i8, ptr %0, i64 24
  %32 = load ptr, ptr %31, align 8, !tbaa !69
  %33 = load ptr, ptr %1, align 8, !tbaa !51
  store ptr %33, ptr %6, align 8, !tbaa !51
  %34 = load ptr, ptr %2, align 8, !tbaa !51
  store ptr %34, ptr %7, align 8, !tbaa !51
  call void @_ZN4cvc58internal6theory22TheoryInferenceManager23conflictEqConstantMergeENS0_12NodeTemplateILb0EEES4_(ptr noundef nonnull align 8 dereferenceable(240) %32, ptr noundef nonnull %6, ptr noundef nonnull %7)
  br label %35

35:                                               ; preds = %30, %_ZN4cvc58internal12NodeTemplateILb1EED2Ev.exit
  ret void
}